Certificate:
    Data:
        Version: 3 (0x2)
        Serial Number: 1 (0x1)
        Signature Algorithm: sha1WithRSAEncryption
<<<<<<< HEAD
        Issuer: C=CN, ST=JS, L=WX, O=CIOTC, OU=WLWAQ, CN=20130627CA/emailAddress=20130627debugCA@ciotc.org
        Validity
            Not Before: Jun 27 03:26:07 2013 GMT
            Not After : Jun 27 03:26:07 2014 GMT
        Subject: C=CN, ST=JS, O=CIOTC, OU=WLWAQ, CN=20130627debuglvshichao/emailAddress=20130627debuglvshichao@ciotc.org
=======
        Issuer: C=CN, ST=JS, L=WX, O=CIOTC, OU=WLWAQ, CN=20130627CA/emailAddress=20130627CA@ciotc.org
        Validity
            Not Before: Jun 27 01:19:09 2013 GMT
            Not After : Jun 27 01:19:09 2014 GMT
        Subject: C=CN, ST=JS, O=CIOTC, OU=WLWAQ, CN=20130627lvshichao/emailAddress=20130627lvshichao@ciotc.org
>>>>>>> 32168e783a1cd406ad9a61ed2074d8763e2c57de
        Subject Public Key Info:
            Public Key Algorithm: rsaEncryption
            RSA Public Key: (512 bit)
                Modulus (512 bit):
<<<<<<< HEAD
                    00:ad:43:9e:63:2c:6b:bf:1b:89:a7:51:d7:29:df:
                    8a:b3:55:2e:36:d6:1b:fb:ca:b7:83:7a:b4:32:2f:
                    0f:c5:7c:5b:41:80:a1:3b:22:c8:34:4f:20:d1:58:
                    12:f3:da:8d:c6:83:c7:39:e5:2c:47:e5:7a:f2:52:
                    9d:16:9e:13:7b
=======
                    00:b8:44:23:f1:97:e8:a8:8b:04:c0:55:51:bd:88:
                    67:dd:76:ff:8d:a2:08:80:ae:3b:8a:27:ff:47:9a:
                    eb:6b:1e:4d:3a:7c:54:8e:03:db:50:f3:21:77:ee:
                    3d:77:37:35:cc:c9:48:6e:02:63:14:e2:cc:e6:ac:
                    69:26:03:a8:6b
>>>>>>> 32168e783a1cd406ad9a61ed2074d8763e2c57de
                Exponent: 65537 (0x10001)
        X509v3 extensions:
            X509v3 Basic Constraints: 
                CA:FALSE
            Netscape Comment: 
                OpenSSL Generated Certificate
            X509v3 Subject Key Identifier: 
<<<<<<< HEAD
                54:CC:DE:83:76:C7:39:7B:5A:1A:DF:EF:05:A7:52:51:0A:81:61:3C
            X509v3 Authority Key Identifier: 
                keyid:FC:2D:89:A2:5C:9A:9C:7C:08:D0:35:5B:EB:B4:2E:5F:9D:51:43:23

    Signature Algorithm: sha1WithRSAEncryption
        4d:f6:04:a7:dd:ef:d2:55:79:17:cd:aa:91:61:01:80:50:3b:
        c7:92:36:bc:3a:53:e4:4e:79:80:ca:e9:51:1f:62:29:4a:8a:
        ce:66:6a:bb:3a:70:07:2e:31:04:18:b8:1e:6f:27:8f:b1:15:
        30:19:28:fa:5d:86:41:cd:ae:7b:80:44:26:7a:7b:ec:a2:c1:
        f1:9e:8d:04:3c:07:8e:cc:ab:38:25:33:15:30:c8:77:5a:ed:
        42:7f:71:b6:f0:b6:4b:d1:17:08:a5:2f:2a:84:74:7c:e5:04:
        1c:30:8c:ba:dc:98:44:65:8f:a5:40:d7:8c:c3:dc:2d:f4:55:
        f2:3b
-----BEGIN CERTIFICATE-----
MIICwTCCAiqgAwIBAgIBATANBgkqhkiG9w0BAQUFADCBhjELMAkGA1UEBhMCQ04x
CzAJBgNVBAgTAkpTMQswCQYDVQQHEwJXWDEOMAwGA1UEChMFQ0lPVEMxDjAMBgNV
BAsTBVdMV0FRMRMwEQYDVQQDEwoyMDEzMDYyN0NBMSgwJgYJKoZIhvcNAQkBFhky
MDEzMDYyN2RlYnVnQ0FAY2lvdGMub3JnMB4XDTEzMDYyNzAzMjYwN1oXDTE0MDYy
NzAzMjYwN1owgYwxCzAJBgNVBAYTAkNOMQswCQYDVQQIEwJKUzEOMAwGA1UEChMF
Q0lPVEMxDjAMBgNVBAsTBVdMV0FRMR8wHQYDVQQDExYyMDEzMDYyN2RlYnVnbHZz
aGljaGFvMS8wLQYJKoZIhvcNAQkBFiAyMDEzMDYyN2RlYnVnbHZzaGljaGFvQGNp
b3RjLm9yZzBcMA0GCSqGSIb3DQEBAQUAA0sAMEgCQQCtQ55jLGu/G4mnUdcp34qz
VS421hv7yreDerQyLw/FfFtBgKE7Isg0TyDRWBLz2o3Gg8c55SxH5XryUp0WnhN7
AgMBAAGjezB5MAkGA1UdEwQCMAAwLAYJYIZIAYb4QgENBB8WHU9wZW5TU0wgR2Vu
ZXJhdGVkIENlcnRpZmljYXRlMB0GA1UdDgQWBBRUzN6Ddsc5e1oa3+8Fp1JRCoFh
PDAfBgNVHSMEGDAWgBT8LYmiXJqcfAjQNVvrtC5fnVFDIzANBgkqhkiG9w0BAQUF
AAOBgQBN9gSn3e/SVXkXzaqRYQGAUDvHkja8OlPkTnmAyulRH2IpSorOZmq7OnAH
LjEEGLgebyePsRUwGSj6XYZBza57gEQmenvsosHxno0EPAeOzKs4JTMVMMh3Wu1C
f3G28LZL0RcIpS8qhHR85QQcMIy63JhEZY+lQNeMw9wt9FXyOw==
=======
                A0:5F:4F:34:4E:0D:D5:00:A8:0C:0B:7B:C0:B9:2D:9E:EA:2D:C0:69
            X509v3 Authority Key Identifier: 
                keyid:D9:D7:A3:4D:D2:03:9E:F7:DA:6C:17:9E:BB:03:BA:20:71:92:B2:DA

    Signature Algorithm: sha1WithRSAEncryption
        2f:7f:f4:86:4b:a1:7f:f0:5e:d6:e7:22:6e:a7:29:4d:f2:93:
        4b:1d:2f:ed:90:52:37:d2:8b:16:72:87:96:cb:fe:f7:1b:2e:
        7b:62:4e:f6:2b:7f:23:d3:4a:a6:f9:2c:74:6b:b9:9c:42:b4:
        f5:b1:c8:9d:3d:07:83:28:78:fb:e5:05:1e:f8:d0:92:f8:b2:
        ac:bc:44:c9:8f:63:14:20:4f:65:0d:a6:ae:a8:ad:19:87:b1:
        20:e4:90:7c:f0:e5:7e:26:74:ef:f3:99:91:a7:05:24:91:e1:
        68:8f:49:57:4e:6b:db:a7:39:23:59:0d:95:80:c8:e2:be:4f:
        0e:ad
-----BEGIN CERTIFICATE-----
MIICsjCCAhugAwIBAgIBATANBgkqhkiG9w0BAQUFADCBgTELMAkGA1UEBhMCQ04x
CzAJBgNVBAgTAkpTMQswCQYDVQQHEwJXWDEOMAwGA1UEChMFQ0lPVEMxDjAMBgNV
BAsTBVdMV0FRMRMwEQYDVQQDEwoyMDEzMDYyN0NBMSMwIQYJKoZIhvcNAQkBFhQy
MDEzMDYyN0NBQGNpb3RjLm9yZzAeFw0xMzA2MjcwMTE5MDlaFw0xNDA2MjcwMTE5
MDlaMIGCMQswCQYDVQQGEwJDTjELMAkGA1UECBMCSlMxDjAMBgNVBAoTBUNJT1RD
MQ4wDAYDVQQLEwVXTFdBUTEaMBgGA1UEAxMRMjAxMzA2MjdsdnNoaWNoYW8xKjAo
BgkqhkiG9w0BCQEWGzIwMTMwNjI3bHZzaGljaGFvQGNpb3RjLm9yZzBcMA0GCSqG
SIb3DQEBAQUAA0sAMEgCQQC4RCPxl+ioiwTAVVG9iGfddv+NogiArjuKJ/9Hmutr
Hk06fFSOA9tQ8yF37j13NzXMyUhuAmMU4szmrGkmA6hrAgMBAAGjezB5MAkGA1Ud
EwQCMAAwLAYJYIZIAYb4QgENBB8WHU9wZW5TU0wgR2VuZXJhdGVkIENlcnRpZmlj
YXRlMB0GA1UdDgQWBBSgX080Tg3VAKgMC3vAuS2e6i3AaTAfBgNVHSMEGDAWgBTZ
16NN0gOe99psF567A7ogcZKy2jANBgkqhkiG9w0BAQUFAAOBgQAvf/SGS6F/8F7W
5yJupylN8pNLHS/tkFI30osWcoeWy/73Gy57Yk72K38j00qm+Sx0a7mcQrT1scid
PQeDKHj75QUe+NCS+LKsvETJj2MUIE9lDaauqK0Zh7Eg5JB88OV+JnTv85mRpwUk
keFoj0lXTmvbpzkjWQ2VgMjivk8OrQ==
>>>>>>> 32168e783a1cd406ad9a61ed2074d8763e2c57de
-----END CERTIFICATE-----
