Certificate:
    Data:
        Version: 3 (0x2)
        Serial Number: 3 (0x3)
        Signature Algorithm: sha1WithRSAEncryption
        Issuer: C=CN, ST=JS, L=WX, O=CIOTC, OU=WLWAQ, CN=20130627CA/emailAddress=20130627debugCA@ciotc.org
        Validity
            Not Before: Aug  5 05:49:41 2013 GMT
            Not After : Aug  5 05:49:41 2014 GMT
        Subject: C=CN, ST=JS, O=CIOTC, OU=WLWAQ, CN=20130805AE/emailAddress=20130805AE@ciotc.org
        Subject Public Key Info:
            Public Key Algorithm: rsaEncryption
            RSA Public Key: (512 bit)
                Modulus (512 bit):
                    00:dc:c6:79:a4:cc:e7:84:cb:75:48:d4:a7:11:99:
                    9d:17:cd:3a:81:a4:8f:2e:fd:65:71:08:59:1a:cd:
                    74:b3:8c:32:70:0e:15:89:6d:7e:a0:a4:9e:32:ec:
                    35:1a:c9:39:ff:f8:64:f5:36:de:f3:a4:23:e5:10:
                    44:58:73:f2:43
                Exponent: 65537 (0x10001)
        X509v3 extensions:
            X509v3 Basic Constraints: 
                CA:FALSE
            Netscape Comment: 
                OpenSSL Generated Certificate
            X509v3 Subject Key Identifier: 
                59:16:7D:FE:85:F6:21:66:DE:9D:01:3A:A8:FB:0D:4C:F2:34:03:E8
            X509v3 Authority Key Identifier: 
                keyid:FC:2D:89:A2:5C:9A:9C:7C:08:D0:35:5B:EB:B4:2E:5F:9D:51:43:23

    Signature Algorithm: sha1WithRSAEncryption
        1a:e3:4f:ed:bf:65:61:96:7e:9a:42:90:64:2c:40:69:63:22:
        e7:02:a7:5c:de:a1:21:50:fd:67:bc:22:1b:3f:f0:a7:da:7f:
        9e:7c:78:74:68:a1:a2:51:87:e8:29:23:8c:f9:26:9a:37:2b:
        bd:fc:38:81:26:ea:8f:e0:f3:3a:21:ec:1d:64:18:76:10:86:
        eb:22:22:c5:4d:85:62:4f:c7:2c:19:e8:22:14:1c:79:e8:11:
        98:9c:11:c6:de:51:0b:b1:8e:df:c6:ce:36:44:a6:9c:6b:c3:
        23:b6:05:d5:67:59:a3:78:de:0b:1b:74:ca:6a:d8:00:cf:3d:
        48:4e
-----BEGIN CERTIFICATE-----
MIICqDCCAhGgAwIBAgIBAzANBgkqhkiG9w0BAQUFADCBhjELMAkGA1UEBhMCQ04x
CzAJBgNVBAgTAkpTMQswCQYDVQQHEwJXWDEOMAwGA1UEChMFQ0lPVEMxDjAMBgNV
BAsTBVdMV0FRMRMwEQYDVQQDEwoyMDEzMDYyN0NBMSgwJgYJKoZIhvcNAQkBFhky
MDEzMDYyN2RlYnVnQ0FAY2lvdGMub3JnMB4XDTEzMDgwNTA1NDk0MVoXDTE0MDgw
NTA1NDk0MVowdDELMAkGA1UEBhMCQ04xCzAJBgNVBAgTAkpTMQ4wDAYDVQQKEwVD
SU9UQzEOMAwGA1UECxMFV0xXQVExEzARBgNVBAMTCjIwMTMwODA1QUUxIzAhBgkq
hkiG9w0BCQEWFDIwMTMwODA1QUVAY2lvdGMub3JnMFwwDQYJKoZIhvcNAQEBBQAD
SwAwSAJBANzGeaTM54TLdUjUpxGZnRfNOoGkjy79ZXEIWRrNdLOMMnAOFYltfqCk
njLsNRrJOf/4ZPU23vOkI+UQRFhz8kMCAwEAAaN7MHkwCQYDVR0TBAIwADAsBglg
hkgBhvhCAQ0EHxYdT3BlblNTTCBHZW5lcmF0ZWQgQ2VydGlmaWNhdGUwHQYDVR0O
BBYEFFkWff6F9iFm3p0BOqj7DUzyNAPoMB8GA1UdIwQYMBaAFPwtiaJcmpx8CNA1
W+u0Ll+dUUMjMA0GCSqGSIb3DQEBBQUAA4GBABrjT+2/ZWGWfppCkGQsQGljIucC
p1zeoSFQ/We8Ihs/8Kfaf558eHRooaJRh+gpI4z5Jpo3K738OIEm6o/g8zoh7B1k
GHYQhusiIsVNhWJPxywZ6CIUHHnoEZicEcbeUQuxjt/GzjZEppxrwyO2BdVnWaN4
3gsbdMpq2ADPPUhO
-----END CERTIFICATE-----
